; Listing generated by Microsoft (R) Optimizing Compiler Version 19.43.34808.0 

include listing.inc

INCLUDELIB OLDNAMES

EXTRN	__imp_malloc:PROC
EXTRN	__imp___stdio_common_vfprintf_s:PROC
EXTRN	__imp_ExitProcess:PROC
EXTRN	__imp_free:PROC
EXTRN	__imp__strdup:PROC
EXTRN	__imp___acrt_iob_func:PROC
EXTRN	__security_check_cookie:PROC
PUBLIC	main
PUBLIC	printf_s
PUBLIC	_vfprintf_s_l
PUBLIC	__local_stdio_printf_options
EXTRN	__GSHandlerCheck:PROC
EXTRN	__security_cookie:QWORD
COMM	?_OptionsStorage@?1??__local_stdio_printf_options@@9@9:QWORD							; `__local_stdio_printf_options'::`2'::_OptionsStorage
_DATA	ENDS
;	COMDAT pdata
pdata	SEGMENT
$pdata$main DD	imagerel $LN36@main
	DD	imagerel $LN36@main+698
	DD	imagerel $unwind$main
pdata	ENDS
;	COMDAT pdata
pdata	SEGMENT
$pdata$freeBSTString DD imagerel freeBSTString
	DD	imagerel freeBSTString+55
	DD	imagerel $unwind$freeBSTString
pdata	ENDS
;	COMDAT pdata
pdata	SEGMENT
$pdata$eraseBSTString DD imagerel eraseBSTString
	DD	imagerel eraseBSTString+67
	DD	imagerel $unwind$eraseBSTString
pdata	ENDS
;	COMDAT pdata
pdata	SEGMENT
$pdata$0$eraseBSTString DD imagerel eraseBSTString+67
	DD	imagerel eraseBSTString+106
	DD	imagerel $chain$0$eraseBSTString
pdata	ENDS
;	COMDAT pdata
pdata	SEGMENT
$pdata$2$eraseBSTString DD imagerel eraseBSTString+106
	DD	imagerel eraseBSTString+188
	DD	imagerel $chain$2$eraseBSTString
pdata	ENDS
;	COMDAT pdata
pdata	SEGMENT
$pdata$4$eraseBSTString DD imagerel eraseBSTString+188
	DD	imagerel eraseBSTString+271
	DD	imagerel $chain$4$eraseBSTString
pdata	ENDS
;	COMDAT pdata
pdata	SEGMENT
$pdata$inorderBSTString DD imagerel inorderBSTString
	DD	imagerel inorderBSTString+89
	DD	imagerel $unwind$inorderBSTString
pdata	ENDS
;	COMDAT pdata
pdata	SEGMENT
$pdata$countBSTString DD imagerel countBSTString
	DD	imagerel countBSTString+62
	DD	imagerel $unwind$countBSTString
pdata	ENDS
;	COMDAT pdata
pdata	SEGMENT
$pdata$insertBSTString DD imagerel insertBSTString
	DD	imagerel insertBSTString+229
	DD	imagerel $unwind$insertBSTString
pdata	ENDS
;	COMDAT pdata
pdata	SEGMENT
$pdata$freeBST DD imagerel freeBST
	DD	imagerel freeBST+46
	DD	imagerel $unwind$freeBST
pdata	ENDS
;	COMDAT pdata
pdata	SEGMENT
$pdata$eraseBST DD imagerel eraseBST
	DD	imagerel eraseBST+22
	DD	imagerel $unwind$eraseBST
pdata	ENDS
;	COMDAT pdata
pdata	SEGMENT
$pdata$0$eraseBST DD imagerel eraseBST+22
	DD	imagerel eraseBST+59
	DD	imagerel $chain$0$eraseBST
pdata	ENDS
;	COMDAT pdata
pdata	SEGMENT
$pdata$2$eraseBST DD imagerel eraseBST+59
	DD	imagerel eraseBST+100
	DD	imagerel $chain$2$eraseBST
pdata	ENDS
;	COMDAT pdata
pdata	SEGMENT
$pdata$4$eraseBST DD imagerel eraseBST+100
	DD	imagerel eraseBST+132
	DD	imagerel $chain$4$eraseBST
pdata	ENDS
;	COMDAT pdata
pdata	SEGMENT
$pdata$6$eraseBST DD imagerel eraseBST+132
	DD	imagerel eraseBST+188
	DD	imagerel $chain$6$eraseBST
pdata	ENDS
;	COMDAT pdata
pdata	SEGMENT
$pdata$inorderBST DD imagerel inorderBST
	DD	imagerel inorderBST+89
	DD	imagerel $unwind$inorderBST
pdata	ENDS
;	COMDAT pdata
pdata	SEGMENT
$pdata$countBST DD imagerel countBST
	DD	imagerel countBST+62
	DD	imagerel $unwind$countBST
pdata	ENDS
;	COMDAT pdata
pdata	SEGMENT
$pdata$insertBST DD imagerel insertBST
	DD	imagerel insertBST+134
	DD	imagerel $unwind$insertBST
pdata	ENDS
;	COMDAT pdata
pdata	SEGMENT
$pdata$printf_s DD imagerel $LN6@printf_s
	DD	imagerel $LN6@printf_s+85
	DD	imagerel $unwind$printf_s
pdata	ENDS
;	COMDAT pdata
pdata	SEGMENT
$pdata$_vfprintf_s_l DD imagerel $LN4@vfprintf_s
	DD	imagerel $LN4@vfprintf_s+68
	DD	imagerel $unwind$_vfprintf_s_l
$SG4294967269 DB 0aH, 00H
	ORG $+2
$SG4294967270 DB '%s ', 00H
$SG4294967271 DB 'In-order string after deletion: ', 00H
	ORG $+3
$SG4294967272 DB 'banana', 00H
	ORG $+1
$SG4294967273 DB 0aH, 00H
	ORG $+2
$SG4294967274 DB '%s ', 00H
$SG4294967283 DB 0aH, 00H
	ORG $+2
$SG4294967275 DB 'In-order string traversal: ', 00H
$SG4294967286 DB 0aH, 00H
	ORG $+2
$SG4294967276 DB 'Count of BSTString nodes: %u', 0aH, 00H
	ORG $+2
$SG4294967277 DB 'cherry', 00H
	ORG $+1
$SG4294967278 DB 'grape', 00H
	ORG $+2
$SG4294967279 DB 'banana', 00H
	ORG $+1
$SG4294967280 DB 'apple', 00H
	ORG $+2
$SG4294967281 DB 'orange', 00H
	ORG $+1
$SG4294967282 DB 'orange', 00H
	ORG $+1
$SG4294967284 DB '%llu ', 00H
	ORG $+2
$SG4294967285 DB 'In-order after deletion: ', 00H
	ORG $+2
$SG4294967287 DB '%llu ', 00H
	ORG $+6
$SG4294967288 DB 'In-order traversal: ', 00H
	ORG $+3
$SG4294967289 DB 'Count of BST nodes: %u', 0aH, 00H
_DATA	ENDS
;	COMDAT xdata
xdata	SEGMENT
$unwind$_vfprintf_s_l DQ 00009640f00060f01r	; 1.30596e-308
	DQ	0700b520f0008340fr		; 5.30195e+231
xdata	ENDS
;	COMDAT xdata
xdata	SEGMENT
$unwind$printf_s DQ 07017521b00041b01r		; 9.05146e+231
	DD	030156016H
xdata	ENDS
;	COMDAT xdata
xdata	SEGMENT
$unwind$insertBST DQ 00006340a00040a01r		; 8.62672e-309
	DD	07006320aH
xdata	ENDS
;	COMDAT xdata
xdata	SEGMENT
$unwind$countBST DQ 00006341f00041f01r		; 8.62716e-309
	DD	070023206H
xdata	ENDS
;	COMDAT xdata
xdata	SEGMENT
$unwind$inorderBST DQ 00007641400061401r	; 1.02784e-308
	DQ	07010321400063414r		; 6.286e+231
xdata	ENDS
;	COMDAT xdata
xdata	SEGMENT
$chain$6$eraseBST DQ 00006340000020021r		; 8.62651e-309
	DD	imagerel eraseBST
	DD	imagerel eraseBST+22
	DD	imagerel $unwind$eraseBST
xdata	ENDS
;	COMDAT xdata
xdata	SEGMENT
$chain$4$eraseBST DQ 00006340000020021r		; 8.62651e-309
	DD	imagerel eraseBST
	DD	imagerel eraseBST+22
	DD	imagerel $unwind$eraseBST
xdata	ENDS
;	COMDAT xdata
xdata	SEGMENT
$chain$2$eraseBST DQ 00006340000020021r		; 8.62651e-309
	DD	imagerel eraseBST
	DD	imagerel eraseBST+22
	DD	imagerel $unwind$eraseBST
xdata	ENDS
;	COMDAT xdata
xdata	SEGMENT
$chain$0$eraseBST DQ 00006340500020521r		; 8.62661e-309
	DD	imagerel eraseBST
	DD	imagerel eraseBST+22
	DD	imagerel $unwind$eraseBST
xdata	ENDS
;	COMDAT xdata
xdata	SEGMENT
$unwind$eraseBST DQ 07002320600020601r		; 3.53109e+231
xdata	ENDS
;	COMDAT xdata
xdata	SEGMENT
$unwind$freeBST DQ 03006320a00020a01r		; 2.39605e-77
xdata	ENDS
;	COMDAT xdata
xdata	SEGMENT
$unwind$insertBSTString DQ 00006340a00040a01r	; 8.62672e-309
	DD	07006320aH
xdata	ENDS
;	COMDAT xdata
xdata	SEGMENT
$unwind$countBSTString DQ 00006341f00041f01r	; 8.62716e-309
	DD	070023206H
xdata	ENDS
;	COMDAT xdata
xdata	SEGMENT
$unwind$inorderBSTString DQ 00007641400061401r	; 1.02784e-308
	DQ	07010321400063414r		; 6.286e+231
xdata	ENDS
;	COMDAT xdata
xdata	SEGMENT
$chain$4$eraseBSTString DQ 00006340000020021r	; 8.62651e-309
	DD	imagerel eraseBSTString
	DD	imagerel eraseBSTString+67
	DD	imagerel $unwind$eraseBSTString
xdata	ENDS
;	COMDAT xdata
xdata	SEGMENT
$chain$2$eraseBSTString DQ 00006340000020021r	; 8.62651e-309
	DD	imagerel eraseBSTString
	DD	imagerel eraseBSTString+67
	DD	imagerel $unwind$eraseBSTString
xdata	ENDS
;	COMDAT xdata
xdata	SEGMENT
$chain$0$eraseBSTString DQ 00006340500020521r	; 8.62661e-309
	DD	imagerel eraseBSTString
	DD	imagerel eraseBSTString+67
	DD	imagerel $unwind$eraseBSTString
xdata	ENDS
;	COMDAT xdata
xdata	SEGMENT
$unwind$eraseBSTString DQ 07002320600020601r	; 3.53109e+231
xdata	ENDS
;	COMDAT xdata
xdata	SEGMENT
$unwind$freeBSTString DQ 03006320a00020a01r	; 2.39605e-77
xdata	ENDS
;	COMDAT xdata
xdata	SEGMENT
$unwind$main DQ	00016641700092919r		; 3.11385e-308
	DQ	00014341700155417r		; 2.80964e-308
	DQ	00000701000120117r		; 6.08758e-310
	DD	imagerel __GSHandlerCheck
	DD	080H
xdata	ENDS
END
